target datalayout = "e-m:e-p270:32:32-p271:32:32-p272:64:64-i64:64-i128:128-f80:128-n8:16:32:64-S128"
target triple = "x86_64-pc-linux-gnu"

%struct.node_t = type { ptr }
%struct.match_result_t = type { i64, i64, i64, i64, %struct.node_t, %struct.node_t, %struct.node_t }

; Function Attrs: mustprogress nounwind uwtable
define void @_ZN14match_result_tC2Emmmm6node_tS0_S0_(ptr noundef nonnull align 8 dereferenceable(56) %0, i64 noundef %1, i64 noundef %2, i64 noundef %3, i64 noundef %4, ptr %5, i64 %6, i64 %7) unnamed_addr #0 align 2 {
  %9 = alloca %struct.node_t, align 8
  %10 = alloca %struct.node_t, align 8
  %11 = alloca %struct.node_t, align 8
  %12 = alloca ptr, align 8
  %13 = alloca i64, align 8
  %14 = alloca i64, align 8
  %15 = alloca i64, align 8
  %16 = alloca i64, align 8
  %17 = getelementptr inbounds nuw %struct.node_t, ptr %9, i32 0, i32 0
  store ptr %5, ptr %17, align 8
  %18 = getelementptr inbounds nuw %struct.node_t, ptr %10, i32 0, i32 0
  %19 = inttoptr i64 %6 to ptr
  store ptr %19, ptr %18, align 8
  %20 = getelementptr inbounds nuw %struct.node_t, ptr %11, i32 0, i32 0
  %21 = inttoptr i64 %7 to ptr
  store ptr %21, ptr %20, align 8
  store ptr %0, ptr %12, align 8, !tbaa !26
  store i64 %1, ptr %13, align 8, !tbaa !14
  store i64 %2, ptr %14, align 8, !tbaa !14
  store i64 %3, ptr %15, align 8, !tbaa !14
  store i64 %4, ptr %16, align 8, !tbaa !14
  %22 = load ptr, ptr %12, align 8
  %23 = getelementptr inbounds nuw %struct.match_result_t, ptr %22, i32 0, i32 0
  %24 = load i64, ptr %13, align 8, !tbaa !14
  store i64 %24, ptr %23, align 8, !tbaa !28
  %25 = getelementptr inbounds nuw %struct.match_result_t, ptr %22, i32 0, i32 1
  %26 = load i64, ptr %14, align 8, !tbaa !14
  store i64 %26, ptr %25, align 8, !tbaa !30
  %27 = getelementptr inbounds nuw %struct.match_result_t, ptr %22, i32 0, i32 2
  %28 = load i64, ptr %15, align 8, !tbaa !14
  store i64 %28, ptr %27, align 8, !tbaa !31
  %29 = getelementptr inbounds nuw %struct.match_result_t, ptr %22, i32 0, i32 3
  %30 = load i64, ptr %16, align 8, !tbaa !14
  store i64 %30, ptr %29, align 8, !tbaa !32
  %31 = getelementptr inbounds nuw %struct.match_result_t, ptr %22, i32 0, i32 4
  call void @llvm.memcpy.p0.p0.i64(ptr align 8 %31, ptr align 8 %9, i64 8, i1 false), !tbaa.struct !19
  %32 = getelementptr inbounds nuw %struct.match_result_t, ptr %22, i32 0, i32 5
  call void @llvm.memcpy.p0.p0.i64(ptr align 8 %32, ptr align 8 %10, i64 8, i1 false), !tbaa.struct !19
  %33 = getelementptr inbounds nuw %struct.match_result_t, ptr %22, i32 0, i32 6
  call void @llvm.memcpy.p0.p0.i64(ptr align 8 %33, ptr align 8 %11, i64 8, i1 false), !tbaa.struct !19
  ret void
}