; Function Attrs: mustprogress nofree norecurse nosync nounwind willreturn memory(argmem: write) uwtable
define void @_ZN14match_result_tC2Emmmm6node_tS0_S0_(ptr noundef nonnull writeonly align 8 captures(none) dereferenceable(56) initializes((0, 56)) %0, i64 noundef %1, i64 noundef %2, i64 noundef %3, i64 noundef %4, ptr %5, i64 %6, i64 %7) unnamed_addr #0 align 2 {
  %9 = inttoptr i64 %6 to ptr
  %10 = inttoptr i64 %7 to ptr
  store i64 %1, ptr %0, align 8, !tbaa !20
  %11 = getelementptr inbounds nuw i8, ptr %0, i64 8
  store i64 %2, ptr %11, align 8, !tbaa !23
  %12 = getelementptr inbounds nuw i8, ptr %0, i64 16
  store i64 %3, ptr %12, align 8, !tbaa !24
  %13 = getelementptr inbounds nuw i8, ptr %0, i64 24
  store i64 %4, ptr %13, align 8, !tbaa !25
  %14 = getelementptr inbounds nuw i8, ptr %0, i64 32
  store ptr %5, ptr %14, align 8, !tbaa !17
  %15 = getelementptr inbounds nuw i8, ptr %0, i64 40
  store ptr %9, ptr %15, align 8, !tbaa !17
  %16 = getelementptr inbounds nuw i8, ptr %0, i64 48
  store ptr %10, ptr %16, align 8, !tbaa !17
  ret void
}